target datalayout = "e-m:e-p270:32:32-p271:32:32-p272:64:64-i64:64-i128:128-f80:128-n8:16:32:64-S128"
target triple = "x86_64-pc-linux-gnu"

%"struct.std::atomic.0" = type { %"struct.std::__atomic_base.1" }
%"struct.std::__atomic_base.1" = type { i32 }
%"class.pxrInternal_v0_24__pxrReserved__::TfRefPtr" = type { ptr }
%"class.pxrInternal_v0_24__pxrReserved__::SdfAbstractDataSpecVisitor" = type { ptr }
%"class.pxrInternal_v0_24__pxrReserved__::TfCallContext" = type <{ ptr, ptr, i64, ptr, i8, [7 x i8] }>
%"struct.pxrInternal_v0_24__pxrReserved__::SdfAbstractData_CopySpecs" = type { %"class.pxrInternal_v0_24__pxrReserved__::SdfAbstractDataSpecVisitor", ptr }
%"class.pxrInternal_v0_24__pxrReserved__::Tf_Remnant" = type { %"class.pxrInternal_v0_24__pxrReserved__::TfSimpleRefBase.base", i8, i8, i8, i8 }
%"class.pxrInternal_v0_24__pxrReserved__::TfSimpleRefBase.base" = type { %"class.pxrInternal_v0_24__pxrReserved__::TfRefBase.base" }
%"class.pxrInternal_v0_24__pxrReserved__::TfRefBase.base" = type <{ ptr, %"struct.std::atomic.0" }>
%"class.std::type_info" = type { ptr, ptr }
%"class.pxrInternal_v0_24__pxrReserved__::TfWeakPtr" = type { ptr, %"class.pxrInternal_v0_24__pxrReserved__::TfRefPtr" }

@.str.7 = private unnamed_addr constant [122 x i8] c"generated/home/dtcxzyw/WorkSpace/Projects/compilers/llvm-opt-benchmark/bench/openusd/OpenUSD/pxr/usd/sdf/abstractData.cpp\00", align 1
@__func__._ZNK32pxrInternal_v0_24__pxrReserved__15SdfAbstractData10VisitSpecsEPNS_26SdfAbstractDataSpecVisitorE = private unnamed_addr constant [11 x i8] c"VisitSpecs\00", align 1
@__PRETTY_FUNCTION__._ZNK32pxrInternal_v0_24__pxrReserved__15SdfAbstractData10VisitSpecsEPNS_26SdfAbstractDataSpecVisitorE = private unnamed_addr constant [103 x i8] c"void pxrInternal_v0_24__pxrReserved__::SdfAbstractData::VisitSpecs(SdfAbstractDataSpecVisitor *) const\00", align 1
@.str.8 = private unnamed_addr constant [8 x i8] c"visitor\00", align 1
@.str.13 = private unnamed_addr constant [121 x i8] c"generated/home/dtcxzyw/WorkSpace/Projects/compilers/llvm-opt-benchmark/bench/openusd/OpenUSD/pxr/base/tf/weakPtrFacade.h\00", align 1
@__func__._ZNK32pxrInternal_v0_24__pxrReserved__15TfWeakPtrFacadeINS_9TfWeakPtrEKNS_15SdfAbstractDataEEptEv = private unnamed_addr constant [11 x i8] c"operator->\00", align 1
@.str.14 = private unnamed_addr constant [114 x i8] c"generated/home/dtcxzyw/WorkSpace/Projects/compilers/llvm-opt-benchmark/bench/openusd/OpenUSD/pxr/base/tf/refPtr.h\00", align 1
@_ZTIN32pxrInternal_v0_24__pxrReserved__8TfRefPtrINS_10Tf_RemnantEEE = linkonce_odr constant { ptr, ptr } { ptr getelementptr inbounds (ptr, ptr @_ZTVN10__cxxabiv117__class_type_infoE, i64 2), ptr @_ZTSN32pxrInternal_v0_24__pxrReserved__8TfRefPtrINS_10Tf_RemnantEEE }, comdat, align 8

; Function Attrs: mustprogress nounwind uwtable
define linkonce_odr noundef zeroext i1 @_ZNK32pxrInternal_v0_24__pxrReserved__10Tf_Remnant8_IsAliveEv(ptr noundef nonnull align 8 dereferenceable(15) %0) #0 comdat align 2 {
  %2 = alloca ptr, align 8
  store ptr %0, ptr %2, align 8
  %3 = load ptr, ptr %2, align 8
  %4 = getelementptr inbounds nuw %"class.pxrInternal_v0_24__pxrReserved__::Tf_Remnant", ptr %3, i32 0, i32 3
  %5 = load i8, ptr %4, align 2
  %6 = trunc i8 %5 to i1
  ret i1 %6
}

; Function Attrs: mustprogress uwtable
define linkonce_odr noundef ptr @_ZNK32pxrInternal_v0_24__pxrReserved__8TfRefPtrINS_10Tf_RemnantEEptEv(ptr noundef nonnull align 8 dereferenceable(8) %0) #1 comdat align 2 {
  %2 = alloca ptr, align 8
  %3 = alloca %"class.pxrInternal_v0_24__pxrReserved__::TfCallContext", align 8
  store ptr %0, ptr %2, align 8
  %4 = load ptr, ptr %2, align 8
  %5 = getelementptr inbounds nuw %"class.pxrInternal_v0_24__pxrReserved__::TfRefPtr", ptr %4, i32 0, i32 0
  %6 = load ptr, ptr %5, align 8
  %7 = icmp ne ptr %6, null
  br i1 %7, label %8, label %11

8:                                                ; preds = %1
  %9 = getelementptr inbounds nuw %"class.pxrInternal_v0_24__pxrReserved__::TfRefPtr", ptr %4, i32 0, i32 0
  %10 = load ptr, ptr %9, align 8
  ret ptr %10

11:                                               ; preds = %1
  call void @_ZN32pxrInternal_v0_24__pxrReserved__13TfCallContextC2EPKcS2_mS2_(ptr noundef nonnull align 8 dereferenceable(33) %3, ptr noundef @.str.14, ptr noundef @__func__._ZNK32pxrInternal_v0_24__pxrReserved__15TfWeakPtrFacadeINS_9TfWeakPtrEKNS_15SdfAbstractDataEEptEv, i64 noundef 936, ptr noundef @__PRETTY_FUNCTION__._ZNK32pxrInternal_v0_24__pxrReserved__8TfRefPtrINS_10Tf_RemnantEEptEv)
  %12 = call noundef ptr @_ZNKSt9type_info4nameEv(ptr noundef nonnull align 8 dereferenceable(16) @_ZTIN32pxrInternal_v0_24__pxrReserved__8TfRefPtrINS_10Tf_RemnantEEE) #12
  call void @_ZN32pxrInternal_v0_24__pxrReserved__40Tf_PostNullSmartPtrDereferenceFatalErrorERKNS_13TfCallContextEPKc(ptr noundef nonnull align 8 dereferenceable(33) %3, ptr noundef %12) #14
  unreachable
}

; Function Attrs: mustprogress nounwind uwtable
define linkonce_odr i64 @_ZNK32pxrInternal_v0_24__pxrReserved__8TfRefPtrINS_10Tf_RemnantEEcvMS2_PKNS_9TfRefBaseEEv(ptr noundef nonnull align 8 dereferenceable(8) %0) #0 comdat align 2 {
  %2 = alloca ptr, align 8
  store ptr %0, ptr %2, align 8
  %3 = load ptr, ptr %2, align 8
  %4 = getelementptr inbounds nuw %"class.pxrInternal_v0_24__pxrReserved__::TfRefPtr", ptr %3, i32 0, i32 0
  %5 = load ptr, ptr %4, align 8
  %6 = icmp ne ptr %5, null
  %7 = select i1 %6, i64 0, i64 -1
  ret i64 %7
}

; Function Attrs: mustprogress uwtable
define linkonce_odr noundef ptr @_ZNK32pxrInternal_v0_24__pxrReserved__9TfWeakPtrIKNS_15SdfAbstractDataEE13_FetchPointerEv(ptr noundef nonnull align 8 dereferenceable(16) %0) #1 comdat align 2 {
  %2 = alloca ptr, align 8
  %3 = alloca ptr, align 8
  store ptr %0, ptr %3, align 8
  %4 = load ptr, ptr %3, align 8
  %5 = getelementptr inbounds nuw %"class.pxrInternal_v0_24__pxrReserved__::TfWeakPtr", ptr %4, i32 0, i32 1
  %6 = call i64 @_ZNK32pxrInternal_v0_24__pxrReserved__8TfRefPtrINS_10Tf_RemnantEEcvMS2_PKNS_9TfRefBaseEEv(ptr noundef nonnull align 8 dereferenceable(8) %5)
  %7 = icmp ne i64 %6, -1
  br i1 %7, label %8, label %12

8:                                                ; preds = %1
  %9 = getelementptr inbounds nuw %"class.pxrInternal_v0_24__pxrReserved__::TfWeakPtr", ptr %4, i32 0, i32 1
  %10 = call noundef ptr @_ZNK32pxrInternal_v0_24__pxrReserved__8TfRefPtrINS_10Tf_RemnantEEptEv(ptr noundef nonnull align 8 dereferenceable(8) %9)
  %11 = call noundef zeroext i1 @_ZNK32pxrInternal_v0_24__pxrReserved__10Tf_Remnant8_IsAliveEv(ptr noundef nonnull align 8 dereferenceable(15) %10)
  br label %12

12:                                               ; preds = %8, %1
  %13 = phi i1 [ false, %1 ], [ %11, %8 ]
  br i1 %13, label %14, label %17

14:                                               ; preds = %12
  %15 = getelementptr inbounds nuw %"class.pxrInternal_v0_24__pxrReserved__::TfWeakPtr", ptr %4, i32 0, i32 0
  %16 = load ptr, ptr %15, align 8
  store ptr %16, ptr %2, align 8
  br label %18

17:                                               ; preds = %12
  store ptr null, ptr %2, align 8
  br label %18

18:                                               ; preds = %17, %14
  %19 = load ptr, ptr %2, align 8
  ret ptr %19
}

; Function Attrs: mustprogress uwtable
define linkonce_odr noundef ptr @_ZN32pxrInternal_v0_24__pxrReserved__21TfWeakPtrFacadeAccess12FetchPointerINS_9TfWeakPtrIKNS_15SdfAbstractDataEEEEEPNT_8DataTypeERKS6_(ptr noundef nonnull align 8 dereferenceable(16) %0) #1 comdat align 2 {
  %2 = alloca ptr, align 8
  store ptr %0, ptr %2, align 8
  %3 = load ptr, ptr %2, align 8
  %4 = call noundef ptr @_ZNK32pxrInternal_v0_24__pxrReserved__9TfWeakPtrIKNS_15SdfAbstractDataEE13_FetchPointerEv(ptr noundef nonnull align 8 dereferenceable(16) %3)
  ret ptr %4
}

; Function Attrs: mustprogress nounwind uwtable
define linkonce_odr noundef nonnull align 8 dereferenceable(16) ptr @_ZNK32pxrInternal_v0_24__pxrReserved__15TfWeakPtrFacadeINS_9TfWeakPtrEKNS_15SdfAbstractDataEE8_DerivedEv(ptr noundef nonnull align 1 dereferenceable(1) %0) #0 comdat align 2 {
  %2 = alloca ptr, align 8
  store ptr %0, ptr %2, align 8
  %3 = load ptr, ptr %2, align 8
  ret ptr %3
}

; Function Attrs: mustprogress nounwind uwtable
define void @_ZN32pxrInternal_v0_24__pxrReserved__26SdfAbstractDataSpecVisitorD2Ev(ptr noundef nonnull align 8 dereferenceable(8) %0) unnamed_addr #0 align 2 {
  %2 = alloca ptr, align 8
  store ptr %0, ptr %2, align 8
  ret void
}

; Function Attrs: mustprogress nounwind uwtable
define linkonce_odr noundef ptr @_ZN32pxrInternal_v0_24__pxrReserved__21Tf_VerifyStringFormatEv() #0 comdat {
  ret ptr null
}

; Function Attrs: mustprogress nounwind uwtable
define linkonce_odr noundef ptr @_ZNKSt9type_info4nameEv(ptr noundef nonnull align 8 dereferenceable(16) %0) #0 comdat align 2 {
  %2 = alloca ptr, align 8
  store ptr %0, ptr %2, align 8
  %3 = load ptr, ptr %2, align 8
  %4 = getelementptr inbounds nuw %"class.std::type_info", ptr %3, i32 0, i32 1
  %5 = load ptr, ptr %4, align 8
  %6 = getelementptr inbounds i8, ptr %5, i64 0
  %7 = load i8, ptr %6, align 1
  %8 = sext i8 %7 to i32
  %9 = icmp eq i32 %8, 42
  br i1 %9, label %10, label %14

10:                                               ; preds = %1
  %11 = getelementptr inbounds nuw %"class.std::type_info", ptr %3, i32 0, i32 1
  %12 = load ptr, ptr %11, align 8
  %13 = getelementptr inbounds i8, ptr %12, i64 1
  br label %17

14:                                               ; preds = %1
  %15 = getelementptr inbounds nuw %"class.std::type_info", ptr %3, i32 0, i32 1
  %16 = load ptr, ptr %15, align 8
  br label %17

17:                                               ; preds = %14, %10
  %18 = phi ptr [ %13, %10 ], [ %16, %14 ]
  ret ptr %18
}

; Function Attrs: mustprogress nounwind uwtable
define linkonce_odr void @_ZN32pxrInternal_v0_24__pxrReserved__13TfCallContextC2EPKcS2_mS2_(ptr noundef nonnull align 8 dereferenceable(33) %0, ptr noundef %1, ptr noundef %2, i64 noundef %3, ptr noundef %4) unnamed_addr #0 comdat align 2 {
  %6 = alloca ptr, align 8
  %7 = alloca ptr, align 8
  %8 = alloca ptr, align 8
  %9 = alloca i64, align 8
  %10 = alloca ptr, align 8
  store ptr %0, ptr %6, align 8
  store ptr %1, ptr %7, align 8
  store ptr %2, ptr %8, align 8
  store i64 %3, ptr %9, align 8
  store ptr %4, ptr %10, align 8
  %11 = load ptr, ptr %6, align 8
  %12 = getelementptr inbounds nuw %"class.pxrInternal_v0_24__pxrReserved__::TfCallContext", ptr %11, i32 0, i32 0
  %13 = load ptr, ptr %7, align 8
  store ptr %13, ptr %12, align 8
  %14 = getelementptr inbounds nuw %"class.pxrInternal_v0_24__pxrReserved__::TfCallContext", ptr %11, i32 0, i32 1
  %15 = load ptr, ptr %8, align 8
  store ptr %15, ptr %14, align 8
  %16 = getelementptr inbounds nuw %"class.pxrInternal_v0_24__pxrReserved__::TfCallContext", ptr %11, i32 0, i32 2
  %17 = load i64, ptr %9, align 8
  store i64 %17, ptr %16, align 8
  %18 = getelementptr inbounds nuw %"class.pxrInternal_v0_24__pxrReserved__::TfCallContext", ptr %11, i32 0, i32 3
  %19 = load ptr, ptr %10, align 8
  store ptr %19, ptr %18, align 8
  %20 = getelementptr inbounds nuw %"class.pxrInternal_v0_24__pxrReserved__::TfCallContext", ptr %11, i32 0, i32 4
  store i8 0, ptr %20, align 8
  ret void
}

; Function Attrs: mustprogress uwtable
define linkonce_odr noundef ptr @_ZNK32pxrInternal_v0_24__pxrReserved__15TfWeakPtrFacadeINS_9TfWeakPtrEKNS_15SdfAbstractDataEE13_FetchPointerEv(ptr noundef nonnull align 1 dereferenceable(1) %0) #1 comdat align 2 {
  %2 = alloca ptr, align 8
  store ptr %0, ptr %2, align 8
  %3 = load ptr, ptr %2, align 8
  %4 = call noundef nonnull align 8 dereferenceable(16) ptr @_ZNK32pxrInternal_v0_24__pxrReserved__15TfWeakPtrFacadeINS_9TfWeakPtrEKNS_15SdfAbstractDataEE8_DerivedEv(ptr noundef nonnull align 1 dereferenceable(1) %3)
  %5 = call noundef ptr @_ZN32pxrInternal_v0_24__pxrReserved__21TfWeakPtrFacadeAccess12FetchPointerINS_9TfWeakPtrIKNS_15SdfAbstractDataEEEEEPNT_8DataTypeERKS6_(ptr noundef nonnull align 8 dereferenceable(16) %4)
  ret ptr %5
}

; Function Attrs: mustprogress nounwind uwtable
define linkonce_odr void @_ZN32pxrInternal_v0_24__pxrReserved__26SdfAbstractDataSpecVisitorC2Ev(ptr noundef nonnull align 8 dereferenceable(8) %0) unnamed_addr #0 comdat align 2 {
  %2 = alloca ptr, align 8
  store ptr %0, ptr %2, align 8
  %3 = load ptr, ptr %2, align 8
  store ptr getelementptr inbounds inrange(-16, 32) ({ [6 x ptr] }, ptr @_ZTVN32pxrInternal_v0_24__pxrReserved__26SdfAbstractDataSpecVisitorE, i32 0, i32 0, i32 2), ptr %3, align 8
  ret void
}

; Function Attrs: mustprogress nounwind uwtable
define linkonce_odr void @_ZN32pxrInternal_v0_24__pxrReserved__25SdfAbstractData_CopySpecsD2Ev(ptr noundef nonnull align 8 dereferenceable(16) %0) unnamed_addr #0 comdat align 2 {
  %2 = alloca ptr, align 8
  store ptr %0, ptr %2, align 8
  %3 = load ptr, ptr %2, align 8
  call void @_ZN32pxrInternal_v0_24__pxrReserved__26SdfAbstractDataSpecVisitorD2Ev(ptr noundef nonnull align 8 dereferenceable(8) %3) #12
  ret void
}

; Function Attrs: mustprogress uwtable
define void @_ZNK32pxrInternal_v0_24__pxrReserved__15SdfAbstractData10VisitSpecsEPNS_26SdfAbstractDataSpecVisitorE(ptr noundef nonnull align 8 dereferenceable(24) %0, ptr noundef %1) #1 align 2 {
  %3 = alloca ptr, align 8
  %4 = alloca ptr, align 8
  %5 = alloca %"class.pxrInternal_v0_24__pxrReserved__::TfCallContext", align 8
  store ptr %0, ptr %3, align 8
  store ptr %1, ptr %4, align 8
  %6 = load ptr, ptr %3, align 8
  %7 = load ptr, ptr %4, align 8
  %8 = icmp ne ptr %7, null
  br i1 %8, label %9, label %10

9:                                                ; preds = %2
  br label %13

10:                                               ; preds = %2
  call void @_ZN32pxrInternal_v0_24__pxrReserved__13TfCallContextC2EPKcS2_mS2_(ptr noundef nonnull align 8 dereferenceable(33) %5, ptr noundef @.str.7, ptr noundef @__func__._ZNK32pxrInternal_v0_24__pxrReserved__15SdfAbstractData10VisitSpecsEPNS_26SdfAbstractDataSpecVisitorE, i64 noundef 239, ptr noundef @__PRETTY_FUNCTION__._ZNK32pxrInternal_v0_24__pxrReserved__15SdfAbstractData10VisitSpecsEPNS_26SdfAbstractDataSpecVisitorE)
  %11 = call noundef ptr @_ZN32pxrInternal_v0_24__pxrReserved__21Tf_VerifyStringFormatEv()
  %12 = call noundef zeroext i1 @_ZN32pxrInternal_v0_24__pxrReserved__21Tf_FailedVerifyHelperERKNS_13TfCallContextEPKcS4_(ptr noundef nonnull align 8 dereferenceable(33) %5, ptr noundef @.str.8, ptr noundef %11)
  br label %13

13:                                               ; preds = %10, %9
  %14 = phi i1 [ true, %9 ], [ %12, %10 ]
  br i1 %14, label %15, label %24

15:                                               ; preds = %13
  %16 = load ptr, ptr %4, align 8
  %17 = load ptr, ptr %6, align 8
  %18 = getelementptr inbounds ptr, ptr %17, i64 39
  %19 = load ptr, ptr %18, align 8
  call void %19(ptr noundef nonnull align 8 dereferenceable(24) %6, ptr noundef %16)
  %20 = load ptr, ptr %4, align 8
  %21 = load ptr, ptr %20, align 8
  %22 = getelementptr inbounds ptr, ptr %21, i64 3
  %23 = load ptr, ptr %22, align 8
  call void %23(ptr noundef nonnull align 8 dereferenceable(8) %20, ptr noundef nonnull align 8 dereferenceable(24) %6)
  br label %24

24:                                               ; preds = %15, %13
  ret void
}

; Function Attrs: mustprogress uwtable
define linkonce_odr noundef ptr @_ZNK32pxrInternal_v0_24__pxrReserved__15TfWeakPtrFacadeINS_9TfWeakPtrEKNS_15SdfAbstractDataEEptEv(ptr noundef nonnull align 1 dereferenceable(1) %0) #1 comdat align 2 {
  %2 = alloca ptr, align 8
  %3 = alloca ptr, align 8
  %4 = alloca %"class.pxrInternal_v0_24__pxrReserved__::TfCallContext", align 8
  store ptr %0, ptr %2, align 8
  %5 = load ptr, ptr %2, align 8
  %6 = call noundef ptr @_ZNK32pxrInternal_v0_24__pxrReserved__15TfWeakPtrFacadeINS_9TfWeakPtrEKNS_15SdfAbstractDataEE13_FetchPointerEv(ptr noundef nonnull align 1 dereferenceable(1) %5)
  store ptr %6, ptr %3, align 8
  %7 = load ptr, ptr %3, align 8
  %8 = icmp ne ptr %7, null
  br i1 %8, label %9, label %11

9:                                                ; preds = %1
  %10 = load ptr, ptr %3, align 8
  ret ptr %10

11:                                               ; preds = %1
  call void @_ZN32pxrInternal_v0_24__pxrReserved__13TfCallContextC2EPKcS2_mS2_(ptr noundef nonnull align 8 dereferenceable(33) %4, ptr noundef @.str.13, ptr noundef @__func__._ZNK32pxrInternal_v0_24__pxrReserved__15TfWeakPtrFacadeINS_9TfWeakPtrEKNS_15SdfAbstractDataEEptEv, i64 noundef 198, ptr noundef @__PRETTY_FUNCTION__._ZNK32pxrInternal_v0_24__pxrReserved__15TfWeakPtrFacadeINS_9TfWeakPtrEKNS_15SdfAbstractDataEEptEv)
  %12 = call noundef ptr @_ZNKSt9type_info4nameEv(ptr noundef nonnull align 8 dereferenceable(16) @_ZTIN32pxrInternal_v0_24__pxrReserved__9TfWeakPtrIKNS_15SdfAbstractDataEEE) #12
  call void @_ZN32pxrInternal_v0_24__pxrReserved__40Tf_PostNullSmartPtrDereferenceFatalErrorERKNS_13TfCallContextEPKc(ptr noundef nonnull align 8 dereferenceable(33) %4, ptr noundef %12) #14
  unreachable
}

; Function Attrs: mustprogress nounwind uwtable
define linkonce_odr void @_ZN32pxrInternal_v0_24__pxrReserved__25SdfAbstractData_CopySpecsC2EPNS_15SdfAbstractDataE(ptr noundef nonnull align 8 dereferenceable(16) %0, ptr noundef %1) unnamed_addr #0 comdat align 2 {
  %3 = alloca ptr, align 8
  %4 = alloca ptr, align 8
  store ptr %0, ptr %3, align 8
  store ptr %1, ptr %4, align 8
  %5 = load ptr, ptr %3, align 8
  call void @_ZN32pxrInternal_v0_24__pxrReserved__26SdfAbstractDataSpecVisitorC2Ev(ptr noundef nonnull align 8 dereferenceable(8) %5) #12
  store ptr getelementptr inbounds inrange(-16, 32) ({ [6 x ptr] }, ptr @_ZTVN32pxrInternal_v0_24__pxrReserved__25SdfAbstractData_CopySpecsE, i32 0, i32 0, i32 2), ptr %5, align 8
  %6 = getelementptr inbounds nuw %"struct.pxrInternal_v0_24__pxrReserved__::SdfAbstractData_CopySpecs", ptr %5, i32 0, i32 1
  %7 = load ptr, ptr %4, align 8
  store ptr %7, ptr %6, align 8
  ret void
}

; Function Attrs: mustprogress uwtable
define void @_ZN32pxrInternal_v0_24__pxrReserved__15SdfAbstractData8CopyFromERKNS_9TfWeakPtrIKS0_EE(ptr noundef nonnull align 8 dereferenceable(24) %0, ptr noundef nonnull align 8 dereferenceable(16) %1) unnamed_addr #1 align 2 personality ptr @__gxx_personality_v0 {
  %3 = alloca ptr, align 8
  %4 = alloca ptr, align 8
  %5 = alloca %"struct.pxrInternal_v0_24__pxrReserved__::SdfAbstractData_CopySpecs", align 8
  %6 = alloca ptr, align 8
  %7 = alloca i32, align 4
  store ptr %0, ptr %3, align 8
  store ptr %1, ptr %4, align 8
  %8 = load ptr, ptr %3, align 8
  call void @_ZN32pxrInternal_v0_24__pxrReserved__25SdfAbstractData_CopySpecsC2EPNS_15SdfAbstractDataE(ptr noundef nonnull align 8 dereferenceable(16) %5, ptr noundef %8)
  %9 = load ptr, ptr %4, align 8
  %10 = invoke noundef ptr @_ZNK32pxrInternal_v0_24__pxrReserved__15TfWeakPtrFacadeINS_9TfWeakPtrEKNS_15SdfAbstractDataEEptEv(ptr noundef nonnull align 1 dereferenceable(1) %9)
          to label %11 unwind label %13

11:                                               ; preds = %2
  invoke void @_ZNK32pxrInternal_v0_24__pxrReserved__15SdfAbstractData10VisitSpecsEPNS_26SdfAbstractDataSpecVisitorE(ptr noundef nonnull align 8 dereferenceable(24) %10, ptr noundef %5)
          to label %12 unwind label %13

12:                                               ; preds = %11
  call void @_ZN32pxrInternal_v0_24__pxrReserved__25SdfAbstractData_CopySpecsD2Ev(ptr noundef nonnull align 8 dereferenceable(16) %5) #12
  ret void

13:                                               ; preds = %11, %2
  %14 = landingpad { ptr, i32 }
          cleanup
  %15 = extractvalue { ptr, i32 } %14, 0
  store ptr %15, ptr %6, align 8
  %16 = extractvalue { ptr, i32 } %14, 1
  store i32 %16, ptr %7, align 4
  call void @_ZN32pxrInternal_v0_24__pxrReserved__25SdfAbstractData_CopySpecsD2Ev(ptr noundef nonnull align 8 dereferenceable(16) %5) #12
  br label %17

17:                                               ; preds = %13
  %18 = load ptr, ptr %6, align 8
  %19 = load i32, ptr %7, align 4
  %20 = insertvalue { ptr, i32 } poison, ptr %18, 0
  %21 = insertvalue { ptr, i32 } %20, i32 %19, 1
  resume { ptr, i32 } %21
}